target datalayout = "e-m:e-p270:32:32-p271:32:32-p272:64:64-i64:64-i128:128-f80:128-n8:16:32:64-S128"
target triple = "x86_64-pc-linux-gnu"

%class.ExportObjectModel = type { %class.QAbstractTableModel, %class.QList, %struct._export_object_list_t, %struct.export_object_list_gui_t, ptr }
%class.QAbstractTableModel = type { %class.QAbstractItemModel }
%class.QAbstractItemModel = type { %class.QObject }
%class.QObject = type { ptr, %class.QScopedPointer }
%class.QScopedPointer = type { ptr }
%class.QList = type { %struct.QArrayDataPointer }
%struct.QArrayDataPointer = type { ptr, ptr, i64 }
%struct._export_object_list_t = type { ptr, ptr, ptr }
%struct.export_object_list_gui_t = type { ptr }

; Function Attrs: mustprogress uwtable
define void @_ZN17ExportObjectModel12resetObjectsEv(ptr noundef nonnull align 8 dereferenceable(80) %0) #0 align 2 {
  %2 = alloca ptr, align 8
  %3 = alloca ptr, align 8
  store ptr %0, ptr %2, align 8
  %4 = load ptr, ptr %2, align 8
  %5 = getelementptr inbounds %class.ExportObjectModel, ptr %4, i32 0, i32 4
  %6 = load ptr, ptr %5, align 8
  %7 = call ptr @get_eo_reset_func(ptr noundef %6)
  store ptr %7, ptr %3, align 8
  call void @_ZN18QAbstractItemModel15beginResetModelEv(ptr noundef nonnull align 8 dereferenceable(16) %4)
  %8 = getelementptr inbounds %class.ExportObjectModel, ptr %4, i32 0, i32 1
  call void @_ZN5QListI8QVariantE5clearEv(ptr noundef nonnull align 8 dereferenceable(24) %8)
  call void @_ZN18QAbstractItemModel13endResetModelEv(ptr noundef nonnull align 8 dereferenceable(16) %4)
  %9 = load ptr, ptr %3, align 8
  %10 = icmp ne ptr %9, null
  br i1 %10, label %11, label %13

11:                                               ; preds = %1
  %12 = load ptr, ptr %3, align 8
  call void %12()
  br label %13

13:                                               ; preds = %11, %1
  ret void
}