; Function Attrs: mustprogress uwtable
define void @_ZN17ExportObjectModel12resetObjectsEv(ptr noundef nonnull align 8 dereferenceable(80) %0) local_unnamed_addr #0 align 2 {
  %2 = getelementptr inbounds i8, ptr %0, i64 72
  %3 = load ptr, ptr %2, align 8
  %4 = tail call ptr @get_eo_reset_func(ptr noundef %3)
  tail call void @_ZN18QAbstractItemModel15beginResetModelEv(ptr noundef nonnull align 8 dereferenceable(16) %0)
  %5 = getelementptr inbounds i8, ptr %0, i64 16
  tail call void @_ZN5QListI8QVariantE5clearEv(ptr noundef nonnull align 8 dereferenceable(24) %5)
  tail call void @_ZN18QAbstractItemModel13endResetModelEv(ptr noundef nonnull align 8 dereferenceable(16) %0)
  %.not = icmp eq ptr %4, null
  br i1 %.not, label %7, label %6

6:                                                ; preds = %1
  tail call void %4()
  br label %7

7:                                                ; preds = %6, %1
  ret void
}